; ModuleID = 'source-C-CXX/11/1112.c'
source_filename = "source-C-CXX/11/1112.c"
target datalayout = "e-m:e-p270:32:32-p271:32:32-p272:64:64-i64:64-f80:128-n8:16:32:64-S128"
target triple = "x86_64-pc-linux-gnu"

@.str = private unnamed_addr constant [3 x i8] c"%d\00", align 1
@.str.1 = private unnamed_addr constant [4 x i8] c"%d\0A\00", align 1

; Function Attrs: nofree nounwind sspstrong uwtable
define dso_local i32 @main() local_unnamed_addr #0 {
  %1 = alloca [16 x i32], align 16
  %2 = bitcast [16 x i32]* %1 to i8*
  call void @llvm.lifetime.start.p0i8(i64 64, i8* nonnull %2) #4
  %3 = getelementptr inbounds [16 x i32], [16 x i32]* %1, i64 0, i64 0
  br label %4

4:                                                ; preds = %16, %0
  %5 = phi i64 [ 0, %0 ], [ %17, %16 ]
  %6 = getelementptr inbounds [16 x i32], [16 x i32]* %1, i64 0, i64 %5
  %7 = call i32 (i8*, ...) @__isoc99_scanf(i8* getelementptr inbounds ([3 x i8], [3 x i8]* @.str, i64 0, i64 0), i32* nonnull %6)
  %8 = load i32, i32* %6, align 4, !tbaa !5
  %9 = icmp eq i32 %8, 0
  %10 = load i32, i32* %3, align 16, !tbaa !5
  br i1 %9, label %18, label %11

11:                                               ; preds = %4
  %12 = icmp ne i32 %10, -1
  %13 = add nuw nsw i64 %5, 1
  %14 = icmp ult i64 %5, 15
  %15 = select i1 %12, i1 %14, i1 false
  br i1 %15, label %16, label %18

16:                                               ; preds = %11, %40
  %17 = phi i64 [ %13, %11 ], [ 0, %40 ]
  br label %4, !llvm.loop !9

18:                                               ; preds = %11, %4
  switch i32 %10, label %19 [
    i32 -1, label %43
    i32 0, label %40
  ]

19:                                               ; preds = %18, %35
  %20 = phi i64 [ %36, %35 ], [ 0, %18 ]
  %21 = phi i32 [ %38, %35 ], [ %10, %18 ]
  %22 = phi i32 [ %30, %35 ], [ 0, %18 ]
  br label %23

23:                                               ; preds = %19, %23
  %24 = phi i64 [ 0, %19 ], [ %31, %23 ]
  %25 = phi i32 [ %10, %19 ], [ %33, %23 ]
  %26 = phi i32 [ %22, %19 ], [ %30, %23 ]
  %27 = shl nsw i32 %25, 1
  %28 = icmp eq i32 %21, %27
  %29 = zext i1 %28 to i32
  %30 = add nsw i32 %26, %29
  %31 = add nuw nsw i64 %24, 1
  %32 = getelementptr inbounds [16 x i32], [16 x i32]* %1, i64 0, i64 %31
  %33 = load i32, i32* %32, align 4, !tbaa !5
  %34 = icmp eq i32 %33, 0
  br i1 %34, label %35, label %23, !llvm.loop !11

35:                                               ; preds = %23
  %36 = add nuw i64 %20, 1
  %37 = getelementptr inbounds [16 x i32], [16 x i32]* %1, i64 0, i64 %36
  %38 = load i32, i32* %37, align 4, !tbaa !5
  %39 = icmp eq i32 %38, 0
  br i1 %39, label %40, label %19, !llvm.loop !12

40:                                               ; preds = %35, %18
  %41 = phi i32 [ %10, %18 ], [ %30, %35 ]
  %42 = call i32 (i8*, ...) @printf(i8* nonnull dereferenceable(1) getelementptr inbounds ([4 x i8], [4 x i8]* @.str.1, i64 0, i64 0), i32 %41)
  call void @llvm.memset.p0i8.i64(i8* noundef nonnull align 16 dereferenceable(64) %2, i8 0, i64 64, i1 false)
  br label %16

43:                                               ; preds = %18
  call void @llvm.lifetime.end.p0i8(i64 64, i8* nonnull %2) #4
  ret i32 0
}

; Function Attrs: argmemonly mustprogress nofree nosync nounwind willreturn
declare void @llvm.lifetime.start.p0i8(i64 immarg, i8* nocapture) #1

; Function Attrs: nofree nounwind
declare noundef i32 @__isoc99_scanf(i8* nocapture noundef readonly, ...) local_unnamed_addr #2

; Function Attrs: argmemonly mustprogress nofree nosync nounwind willreturn
declare void @llvm.lifetime.end.p0i8(i64 immarg, i8* nocapture) #1

; Function Attrs: nofree nounwind
declare noundef i32 @printf(i8* nocapture noundef readonly, ...) local_unnamed_addr #2

; Function Attrs: argmemonly nofree nounwind willreturn writeonly
declare void @llvm.memset.p0i8.i64(i8* nocapture writeonly, i8, i64, i1 immarg) #3


!llvm.module.flags = !{!0, !1, !2, !3}
!llvm.ident = !{!4}

!0 = !{i32 1, !"wchar_size", i32 4}
!1 = !{i32 7, !"PIC Level", i32 2}
!2 = !{i32 7, !"PIE Level", i32 2}
!3 = !{i32 7, !"uwtable", i32 1}
!4 = !{!"clang version 13.0.0"}
!5 = !{!6, !6, i64 0}
!6 = !{!"int", !7, i64 0}
!7 = !{!"omnipotent char", !8, i64 0}
!8 = !{!"Simple C/C++ TBAA"}
!9 = distinct !{!9, !10}
!10 = !{!"llvm.loop.mustprogress"}
!11 = distinct !{!11, !10}
!12 = distinct !{!12, !10}
